; Function Attrs: mustprogress uwtable
define noundef zeroext i1 @_ZN3nix6isLinkERKNSt7__cxx1112basic_stringIcSt11char_traitsIcESaIcEEE(ptr noundef nonnull align 8 dereferenceable(32) %0) local_unnamed_addr #2 personality ptr @__gxx_personality_v0 {
  %2 = alloca %struct.stat, align 8
  %3 = load ptr, ptr %0, align 8, !noalias !30
  %4 = call i32 @lstat(ptr noundef %3, ptr noundef nonnull %2) #29
  %.not.i = icmp eq i32 %4, 0
  br i1 %.not.i, label %_ZN3nix5lstatERKNSt7__cxx1112basic_stringIcSt11char_traitsIcESaIcEEE.exit, label %5

5:                                                ; preds = %1
  %6 = tail call ptr @__cxa_allocate_exception(i64 384) #29, !noalias !30
  invoke void @_ZN3nix8SysErrorC2IJA24_cNSt7__cxx1112basic_stringIcSt11char_traitsIcESaIcEEEEEEDpRKT_(ptr noundef nonnull align 8 dereferenceable(380) %6, ptr noundef nonnull align 1 dereferenceable(24) @.str.7, ptr noundef nonnull align 8 dereferenceable(32) %0)
          to label %7 unwind label %8, !noalias !30

7:                                                ; preds = %5
  tail call void @__cxa_throw(ptr nonnull %6, ptr nonnull @_ZTIN3nix8SysErrorE, ptr nonnull @_ZN3nix8SysErrorD2Ev) #32, !noalias !30
  unreachable

8:                                                ; preds = %5
  %9 = landingpad { ptr, i32 }
          cleanup
  tail call void @__cxa_free_exception(ptr %6) #29, !noalias !30
  resume { ptr, i32 } %9

_ZN3nix5lstatERKNSt7__cxx1112basic_stringIcSt11char_traitsIcESaIcEEE.exit: ; preds = %1
  %10 = getelementptr inbounds i8, ptr %2, i64 24
  %11 = load i32, ptr %10, align 8
  %12 = and i32 %11, 61440
  %13 = icmp eq i32 %12, 40960
  ret i1 %13
}